target datalayout = "e-m:e-p270:32:32-p271:32:32-p272:64:64-i64:64-i128:128-f80:128-n8:16:32:64-S128"
target triple = "x86_64-pc-linux-gnu"

%struct.Abc_TtStore_t = type { i32, i32, i32, ptr }

; Function Attrs: nounwind uwtable
define void @sortAndUnique1(ptr noundef %0, ptr noundef %1) #0 {
  %3 = alloca ptr, align 8
  %4 = alloca ptr, align 8
  %5 = alloca i32, align 4
  %6 = alloca i32, align 4
  %7 = alloca i32, align 4
  %8 = alloca i64, align 8
  store ptr %0, ptr %3, align 8, !tbaa !3
  store ptr %1, ptr %4, align 8, !tbaa !14
  call void @llvm.lifetime.start.p0(i64 4, ptr %5) #7
  call void @llvm.lifetime.start.p0(i64 4, ptr %6) #7
  store i32 1, ptr %6, align 4, !tbaa !8
  call void @llvm.lifetime.start.p0(i64 4, ptr %7) #7
  %9 = load ptr, ptr %4, align 8, !tbaa !14
  %10 = getelementptr inbounds nuw %struct.Abc_TtStore_t, ptr %9, i32 0, i32 2
  %11 = load i32, ptr %10, align 8, !tbaa !15
  store i32 %11, ptr %7, align 4, !tbaa !8
  call void @llvm.lifetime.start.p0(i64 8, ptr %8) #7
  %12 = load ptr, ptr %3, align 8, !tbaa !3
  %13 = load i32, ptr %7, align 4, !tbaa !8
  %14 = sext i32 %13 to i64
  call void @qsort(ptr noundef %12, i64 noundef %14, i64 noundef 8, ptr noundef @compareWords1)
  %15 = load ptr, ptr %3, align 8, !tbaa !3
  %16 = getelementptr inbounds i64, ptr %15, i64 0
  %17 = load i64, ptr %16, align 8, !tbaa !10
  store i64 %17, ptr %8, align 8, !tbaa !10
  store i32 1, ptr %5, align 4, !tbaa !8
  br label %18

18:                                               ; preds = %48, %2
  %19 = load i32, ptr %5, align 4, !tbaa !8
  %20 = load i32, ptr %7, align 4, !tbaa !8
  %21 = icmp slt i32 %19, %20
  br i1 %21, label %22, label %51

22:                                               ; preds = %18
  %23 = load i64, ptr %8, align 8, !tbaa !10
  %24 = load ptr, ptr %3, align 8, !tbaa !3
  %25 = load i32, ptr %5, align 4, !tbaa !8
  %26 = sext i32 %25 to i64
  %27 = getelementptr inbounds i64, ptr %24, i64 %26
  %28 = load i64, ptr %27, align 8, !tbaa !10
  %29 = icmp ne i64 %23, %28
  br i1 %29, label %30, label %47

30:                                               ; preds = %22
  %31 = load ptr, ptr %3, align 8, !tbaa !3
  %32 = load i32, ptr %5, align 4, !tbaa !8
  %33 = sext i32 %32 to i64
  %34 = getelementptr inbounds i64, ptr %31, i64 %33
  %35 = load i64, ptr %34, align 8, !tbaa !10
  %36 = load ptr, ptr %3, align 8, !tbaa !3
  %37 = load i32, ptr %6, align 4, !tbaa !8
  %38 = sext i32 %37 to i64
  %39 = getelementptr inbounds i64, ptr %36, i64 %38
  store i64 %35, ptr %39, align 8, !tbaa !10
  %40 = load ptr, ptr %3, align 8, !tbaa !3
  %41 = load i32, ptr %5, align 4, !tbaa !8
  %42 = sext i32 %41 to i64
  %43 = getelementptr inbounds i64, ptr %40, i64 %42
  %44 = load i64, ptr %43, align 8, !tbaa !10
  store i64 %44, ptr %8, align 8, !tbaa !10
  %45 = load i32, ptr %6, align 4, !tbaa !8
  %46 = add nsw i32 %45, 1
  store i32 %46, ptr %6, align 4, !tbaa !8
  br label %47

47:                                               ; preds = %30, %22
  br label %48

48:                                               ; preds = %47
  %49 = load i32, ptr %5, align 4, !tbaa !8
  %50 = add nsw i32 %49, 1
  store i32 %50, ptr %5, align 4, !tbaa !8
  br label %18, !llvm.loop !18

51:                                               ; preds = %18
  %52 = load i32, ptr %6, align 4, !tbaa !8
  %53 = load ptr, ptr %4, align 8, !tbaa !14
  %54 = getelementptr inbounds nuw %struct.Abc_TtStore_t, ptr %53, i32 0, i32 2
  store i32 %52, ptr %54, align 8, !tbaa !15
  call void @llvm.lifetime.end.p0(i64 8, ptr %8) #7
  call void @llvm.lifetime.end.p0(i64 4, ptr %7) #7
  call void @llvm.lifetime.end.p0(i64 4, ptr %6) #7
  call void @llvm.lifetime.end.p0(i64 4, ptr %5) #7
  ret void
}