; Function Attrs: nofree nounwind uwtable
define void @sortAndUnique1(ptr noundef %0, ptr noundef captures(none) %1) local_unnamed_addr #4 {
  %3 = getelementptr inbounds nuw i8, ptr %1, i64 8
  %4 = load i32, ptr %3, align 8, !tbaa !9
  %5 = sext i32 %4 to i64
  tail call void @qsort(ptr noundef %0, i64 noundef %5, i64 noundef 8, ptr noundef nonnull @compareWords1) #19
  %6 = icmp sgt i32 %4, 1
  br i1 %6, label %.lr.ph.preheader, label %._crit_edge

.lr.ph.preheader:                                 ; preds = %2
  %7 = load i64, ptr %0, align 8, !tbaa !3
  %wide.trip.count = zext nneg i32 %4 to i64
  br label %.lr.ph

.lr.ph:                                           ; preds = %.lr.ph.preheader, %15
  %indvars.iv = phi i64 [ 1, %.lr.ph.preheader ], [ %indvars.iv.next, %15 ]
  %.024 = phi i64 [ %7, %.lr.ph.preheader ], [ %.1, %15 ]
  %.01922 = phi i32 [ 1, %.lr.ph.preheader ], [ %.120, %15 ]
  %8 = getelementptr inbounds nuw i64, ptr %0, i64 %indvars.iv
  %9 = load i64, ptr %8, align 8, !tbaa !3
  %.not = icmp eq i64 %.024, %9
  br i1 %.not, label %15, label %10

10:                                               ; preds = %.lr.ph
  %11 = sext i32 %.01922 to i64
  %12 = getelementptr inbounds i64, ptr %0, i64 %11
  store i64 %9, ptr %12, align 8, !tbaa !3
  %13 = load i64, ptr %8, align 8, !tbaa !3
  %14 = add nsw i32 %.01922, 1
  br label %15

15:                                               ; preds = %.lr.ph, %10
  %.120 = phi i32 [ %14, %10 ], [ %.01922, %.lr.ph ]
  %.1 = phi i64 [ %13, %10 ], [ %.024, %.lr.ph ]
  %indvars.iv.next = add nuw nsw i64 %indvars.iv, 1
  %exitcond.not = icmp eq i64 %indvars.iv.next, %wide.trip.count
  br i1 %exitcond.not, label %._crit_edge, label %.lr.ph, !llvm.loop !14

._crit_edge:                                      ; preds = %15, %2
  %.019.lcssa = phi i32 [ 1, %2 ], [ %.120, %15 ]
  store i32 %.019.lcssa, ptr %3, align 8, !tbaa !9
  ret void
}